target datalayout = "e-m:e-p270:32:32-p271:32:32-p272:64:64-i64:64-i128:128-f80:128-n8:16:32:64-S128"
target triple = "x86_64-pc-linux-gnu"

%"class.pybind11::object" = type { %"class.pybind11::handle" }
%"class.pybind11::handle" = type { ptr }
%"class.pybind11::module_" = type { %"class.pybind11::object" }
%"class.pybind11::class_" = type { %"class.pybind11::detail::generic_type" }
%"class.pybind11::detail::generic_type" = type { %"class.pybind11::object" }
%"class.pybind11::class_.1" = type { %"class.pybind11::detail::generic_type" }

@.str = private unnamed_addr constant [10 x i8] c"color_map\00", align 1
@.str.3 = private unnamed_addr constant [32 x i8] c"Color map optimization pipeline\00", align 1
@.str.4 = private unnamed_addr constant [21 x i8] c"RigidOptimizerOption\00", align 1
@.str.5 = private unnamed_addr constant [30 x i8] c"Rigid optimizer option class.\00", align 1
@.str.6 = private unnamed_addr constant [24 x i8] c"NonRigidOptimizerOption\00", align 1
@.str.7 = private unnamed_addr constant [34 x i8] c"Non Rigid optimizer option class.\00", align 1

; Function Attrs: mustprogress ssp uwtable
define hidden void @_ZN6open3d9pipelines9color_map29pybind_color_map_declarationsERN8pybind117module_E(ptr noundef nonnull align 8 dereferenceable(8) %0) #4 personality ptr @__gxx_personality_v0 {
  %2 = alloca ptr, align 8
  %3 = alloca %"class.pybind11::module_", align 8
  %4 = alloca %"class.pybind11::class_", align 8
  %5 = alloca %"class.pybind11::handle", align 8
  %6 = alloca ptr, align 8
  %7 = alloca i32, align 4
  %8 = alloca %"class.pybind11::class_.1", align 8
  %9 = alloca %"class.pybind11::handle", align 8
  store ptr %0, ptr %2, align 8, !tbaa !138
  call void @llvm.lifetime.start.p0(i64 8, ptr %3) #9
  %10 = load ptr, ptr %2, align 8, !tbaa !138
  call void @_ZN8pybind117module_13def_submoduleEPKcS2_(ptr dead_on_unwind writable sret(%"class.pybind11::module_") align 8 %3, ptr noundef nonnull align 8 dereferenceable(8) %10, ptr noundef @.str, ptr noundef @.str.3)
  call void @llvm.lifetime.start.p0(i64 8, ptr %4) #9
  call void @llvm.memcpy.p0.p0.i64(ptr align 8 %5, ptr align 8 %3, i64 8, i1 false)
  %11 = getelementptr inbounds nuw %"class.pybind11::handle", ptr %5, i32 0, i32 0
  %12 = load ptr, ptr %11, align 8
  invoke void @_ZN8pybind116class_IN6open3d9pipelines9color_map20RigidOptimizerOptionEJEEC2IJA30_cEEENS_6handleEPKcDpRKT_(ptr noundef nonnull align 8 dereferenceable(8) %4, ptr %12, ptr noundef @.str.4, ptr noundef nonnull align 1 dereferenceable(30) @.str.5)
          to label %13 unwind label %17

13:                                               ; preds = %1
  call void @llvm.lifetime.start.p0(i64 8, ptr %8) #9
  call void @llvm.memcpy.p0.p0.i64(ptr align 8 %9, ptr align 8 %3, i64 8, i1 false)
  %14 = getelementptr inbounds nuw %"class.pybind11::handle", ptr %9, i32 0, i32 0
  %15 = load ptr, ptr %14, align 8
  invoke void @_ZN8pybind116class_IN6open3d9pipelines9color_map23NonRigidOptimizerOptionEJEEC2IJA34_cEEENS_6handleEPKcDpRKT_(ptr noundef nonnull align 8 dereferenceable(8) %8, ptr %15, ptr noundef @.str.6, ptr noundef nonnull align 1 dereferenceable(34) @.str.7)
          to label %16 unwind label %21

16:                                               ; preds = %13
  call void @_ZN8pybind116objectD2Ev(ptr noundef nonnull align 8 dereferenceable(8) %8) #9
  call void @llvm.lifetime.end.p0(i64 8, ptr %8) #9
  call void @_ZN8pybind116objectD2Ev(ptr noundef nonnull align 8 dereferenceable(8) %4) #9
  call void @llvm.lifetime.end.p0(i64 8, ptr %4) #9
  call void @_ZN8pybind116objectD2Ev(ptr noundef nonnull align 8 dereferenceable(8) %3) #9
  call void @llvm.lifetime.end.p0(i64 8, ptr %3) #9
  ret void

17:                                               ; preds = %1
  %18 = landingpad { ptr, i32 }
          cleanup
  %19 = extractvalue { ptr, i32 } %18, 0
  store ptr %19, ptr %6, align 8
  %20 = extractvalue { ptr, i32 } %18, 1
  store i32 %20, ptr %7, align 4
  br label %25

21:                                               ; preds = %13
  %22 = landingpad { ptr, i32 }
          cleanup
  %23 = extractvalue { ptr, i32 } %22, 0
  store ptr %23, ptr %6, align 8
  %24 = extractvalue { ptr, i32 } %22, 1
  store i32 %24, ptr %7, align 4
  call void @llvm.lifetime.end.p0(i64 8, ptr %8) #9
  call void @_ZN8pybind116objectD2Ev(ptr noundef nonnull align 8 dereferenceable(8) %4) #9
  br label %25

25:                                               ; preds = %21, %17
  call void @llvm.lifetime.end.p0(i64 8, ptr %4) #9
  call void @_ZN8pybind116objectD2Ev(ptr noundef nonnull align 8 dereferenceable(8) %3) #9
  call void @llvm.lifetime.end.p0(i64 8, ptr %3) #9
  br label %26

26:                                               ; preds = %25
  %27 = load ptr, ptr %6, align 8
  %28 = load i32, ptr %7, align 4
  %29 = insertvalue { ptr, i32 } poison, ptr %27, 0
  %30 = insertvalue { ptr, i32 } %29, i32 %28, 1
  resume { ptr, i32 } %30
}