; Function Attrs: mustprogress ssp uwtable
define hidden void @_ZN6open3d9pipelines9color_map29pybind_color_map_declarationsERN8pybind117module_E(ptr noundef nonnull align 8 dereferenceable(8) %0) local_unnamed_addr #5 personality ptr @__gxx_personality_v0 {
  %2 = alloca %"class.pybind11::module_", align 8
  %3 = alloca %"class.pybind11::class_", align 8
  %4 = alloca %"class.pybind11::class_.1", align 8
  call void @llvm.lifetime.start.p0(i64 8, ptr nonnull %2) #30
  call void @_ZN8pybind117module_13def_submoduleEPKcS2_(ptr dead_on_unwind nonnull writable sret(%"class.pybind11::module_") align 8 %2, ptr noundef nonnull align 8 dereferenceable(8) %0, ptr noundef nonnull @.str, ptr noundef nonnull @.str.3)
  call void @llvm.lifetime.start.p0(i64 8, ptr nonnull %3) #30
  %.sroa.01.0.copyload = load ptr, ptr %2, align 8
  invoke void @_ZN8pybind116class_IN6open3d9pipelines9color_map20RigidOptimizerOptionEJEEC2IJA30_cEEENS_6handleEPKcDpRKT_(ptr noundef nonnull align 8 dereferenceable(8) %3, ptr %.sroa.01.0.copyload, ptr noundef nonnull @.str.4, ptr noundef nonnull align 1 dereferenceable(30) @.str.5)
          to label %5 unwind label %40

5:                                                ; preds = %1
  call void @llvm.lifetime.start.p0(i64 8, ptr nonnull %4) #30
  %.sroa.0.0.copyload = load ptr, ptr %2, align 8
  invoke void @_ZN8pybind116class_IN6open3d9pipelines9color_map23NonRigidOptimizerOptionEJEEC2IJA34_cEEENS_6handleEPKcDpRKT_(ptr noundef nonnull align 8 dereferenceable(8) %4, ptr %.sroa.0.0.copyload, ptr noundef nonnull @.str.6, ptr noundef nonnull align 1 dereferenceable(34) @.str.7)
          to label %6 unwind label %42

6:                                                ; preds = %5
  %7 = load ptr, ptr %4, align 8, !tbaa !118
  %.not.i.i.i = icmp eq ptr %7, null
  br i1 %.not.i.i.i, label %_ZN8pybind116objectD2Ev.exit, label %8

8:                                                ; preds = %6
  %9 = load i64, ptr %7, align 8, !tbaa !117
  %10 = and i64 %9, 2147483648
  %.not2.i.i.i = icmp eq i64 %10, 0
  br i1 %.not2.i.i.i, label %11, label %_ZN8pybind116objectD2Ev.exit

11:                                               ; preds = %8
  %12 = add nsw i64 %9, -1
  store i64 %12, ptr %7, align 8, !tbaa !117
  %13 = icmp eq i64 %12, 0
  br i1 %13, label %14, label %_ZN8pybind116objectD2Ev.exit

14:                                               ; preds = %11
  invoke void @_Py_Dealloc(ptr noundef nonnull %7)
          to label %_ZN8pybind116objectD2Ev.exit unwind label %15

15:                                               ; preds = %14
  %16 = landingpad { ptr, i32 }
          catch ptr null
  %17 = extractvalue { ptr, i32 } %16, 0
  call void @__clang_call_terminate(ptr %17) #31
  unreachable

_ZN8pybind116objectD2Ev.exit:                     ; preds = %6, %8, %11, %14
  call void @llvm.lifetime.end.p0(i64 8, ptr nonnull %4) #30
  %18 = load ptr, ptr %3, align 8, !tbaa !118
  %.not.i.i.i5 = icmp eq ptr %18, null
  br i1 %.not.i.i.i5, label %_ZN8pybind116objectD2Ev.exit7, label %19

19:                                               ; preds = %_ZN8pybind116objectD2Ev.exit
  %20 = load i64, ptr %18, align 8, !tbaa !117
  %21 = and i64 %20, 2147483648
  %.not2.i.i.i6 = icmp eq i64 %21, 0
  br i1 %.not2.i.i.i6, label %22, label %_ZN8pybind116objectD2Ev.exit7

22:                                               ; preds = %19
  %23 = add nsw i64 %20, -1
  store i64 %23, ptr %18, align 8, !tbaa !117
  %24 = icmp eq i64 %23, 0
  br i1 %24, label %25, label %_ZN8pybind116objectD2Ev.exit7

25:                                               ; preds = %22
  invoke void @_Py_Dealloc(ptr noundef nonnull %18)
          to label %_ZN8pybind116objectD2Ev.exit7 unwind label %26

26:                                               ; preds = %25
  %27 = landingpad { ptr, i32 }
          catch ptr null
  %28 = extractvalue { ptr, i32 } %27, 0
  call void @__clang_call_terminate(ptr %28) #31
  unreachable

_ZN8pybind116objectD2Ev.exit7:                    ; preds = %_ZN8pybind116objectD2Ev.exit, %19, %22, %25
  call void @llvm.lifetime.end.p0(i64 8, ptr nonnull %3) #30
  %29 = load ptr, ptr %2, align 8, !tbaa !118
  %.not.i.i.i8 = icmp eq ptr %29, null
  br i1 %.not.i.i.i8, label %_ZN8pybind116objectD2Ev.exit10, label %30

30:                                               ; preds = %_ZN8pybind116objectD2Ev.exit7
  %31 = load i64, ptr %29, align 8, !tbaa !117
  %32 = and i64 %31, 2147483648
  %.not2.i.i.i9 = icmp eq i64 %32, 0
  br i1 %.not2.i.i.i9, label %33, label %_ZN8pybind116objectD2Ev.exit10

33:                                               ; preds = %30
  %34 = add nsw i64 %31, -1
  store i64 %34, ptr %29, align 8, !tbaa !117
  %35 = icmp eq i64 %34, 0
  br i1 %35, label %36, label %_ZN8pybind116objectD2Ev.exit10

36:                                               ; preds = %33
  invoke void @_Py_Dealloc(ptr noundef nonnull %29)
          to label %_ZN8pybind116objectD2Ev.exit10 unwind label %37

37:                                               ; preds = %36
  %38 = landingpad { ptr, i32 }
          catch ptr null
  %39 = extractvalue { ptr, i32 } %38, 0
  call void @__clang_call_terminate(ptr %39) #31
  unreachable

_ZN8pybind116objectD2Ev.exit10:                   ; preds = %_ZN8pybind116objectD2Ev.exit7, %30, %33, %36
  call void @llvm.lifetime.end.p0(i64 8, ptr nonnull %2) #30
  ret void

40:                                               ; preds = %1
  %41 = landingpad { ptr, i32 }
          cleanup
  br label %44

42:                                               ; preds = %5
  %43 = landingpad { ptr, i32 }
          cleanup
  call void @llvm.lifetime.end.p0(i64 8, ptr nonnull %4) #30
  call void @_ZN8pybind116objectD2Ev(ptr noundef nonnull align 8 dereferenceable(8) %3) #30
  br label %44

44:                                               ; preds = %42, %40
  %.pn = phi { ptr, i32 } [ %43, %42 ], [ %41, %40 ]
  call void @llvm.lifetime.end.p0(i64 8, ptr nonnull %3) #30
  call void @_ZN8pybind116objectD2Ev(ptr noundef nonnull align 8 dereferenceable(8) %2) #30
  call void @llvm.lifetime.end.p0(i64 8, ptr nonnull %2) #30
  resume { ptr, i32 } %.pn
}